target datalayout = "e-m:e-p270:32:32-p271:32:32-p272:64:64-i64:64-i128:128-f80:128-n8:16:32:64-S128"
target triple = "x86_64-pc-linux-gnu"

%struct.AVComponentDescriptor = type { i32, i32, i32, i32, i32 }
%struct.AVPixFmtDescriptor = type { ptr, i8, i8, i8, i64, [4 x %struct.AVComponentDescriptor], ptr }

; Function Attrs: nounwind uwtable
define i32 @av_get_bits_per_pixel(ptr noundef %0) #0 {
  %2 = alloca ptr, align 8
  %3 = alloca i32, align 4
  %4 = alloca i32, align 4
  %5 = alloca i32, align 4
  %6 = alloca i32, align 4
  store ptr %0, ptr %2, align 8, !tbaa !13
  call void @llvm.lifetime.start.p0(i64 4, ptr %3) #8
  call void @llvm.lifetime.start.p0(i64 4, ptr %4) #8
  store i32 0, ptr %4, align 4, !tbaa !15
  call void @llvm.lifetime.start.p0(i64 4, ptr %5) #8
  %7 = load ptr, ptr %2, align 8, !tbaa !13
  %8 = getelementptr inbounds nuw %struct.AVPixFmtDescriptor, ptr %7, i32 0, i32 2
  %9 = load i8, ptr %8, align 1, !tbaa !45
  %10 = zext i8 %9 to i32
  %11 = load ptr, ptr %2, align 8, !tbaa !13
  %12 = getelementptr inbounds nuw %struct.AVPixFmtDescriptor, ptr %11, i32 0, i32 3
  %13 = load i8, ptr %12, align 2, !tbaa !46
  %14 = zext i8 %13 to i32
  %15 = add nsw i32 %10, %14
  store i32 %15, ptr %5, align 4, !tbaa !15
  store i32 0, ptr %3, align 4, !tbaa !15
  br label %16

16:                                               ; preds = %45, %1
  %17 = load i32, ptr %3, align 4, !tbaa !15
  %18 = load ptr, ptr %2, align 8, !tbaa !13
  %19 = getelementptr inbounds nuw %struct.AVPixFmtDescriptor, ptr %18, i32 0, i32 1
  %20 = load i8, ptr %19, align 8, !tbaa !47
  %21 = zext i8 %20 to i32
  %22 = icmp slt i32 %17, %21
  br i1 %22, label %23, label %48

23:                                               ; preds = %16
  call void @llvm.lifetime.start.p0(i64 4, ptr %6) #8
  %24 = load i32, ptr %3, align 4, !tbaa !15
  %25 = icmp eq i32 %24, 1
  br i1 %25, label %29, label %26

26:                                               ; preds = %23
  %27 = load i32, ptr %3, align 4, !tbaa !15
  %28 = icmp eq i32 %27, 2
  br i1 %28, label %29, label %30

29:                                               ; preds = %26, %23
  br label %32

30:                                               ; preds = %26
  %31 = load i32, ptr %5, align 4, !tbaa !15
  br label %32

32:                                               ; preds = %30, %29
  %33 = phi i32 [ 0, %29 ], [ %31, %30 ]
  store i32 %33, ptr %6, align 4, !tbaa !15
  %34 = load ptr, ptr %2, align 8, !tbaa !13
  %35 = getelementptr inbounds nuw %struct.AVPixFmtDescriptor, ptr %34, i32 0, i32 5
  %36 = load i32, ptr %3, align 4, !tbaa !15
  %37 = sext i32 %36 to i64
  %38 = getelementptr inbounds [4 x %struct.AVComponentDescriptor], ptr %35, i64 0, i64 %37
  %39 = getelementptr inbounds nuw %struct.AVComponentDescriptor, ptr %38, i32 0, i32 4
  %40 = load i32, ptr %39, align 4, !tbaa !20
  %41 = load i32, ptr %6, align 4, !tbaa !15
  %42 = shl i32 %40, %41
  %43 = load i32, ptr %4, align 4, !tbaa !15
  %44 = add nsw i32 %43, %42
  store i32 %44, ptr %4, align 4, !tbaa !15
  call void @llvm.lifetime.end.p0(i64 4, ptr %6) #8
  br label %45

45:                                               ; preds = %32
  %46 = load i32, ptr %3, align 4, !tbaa !15
  %47 = add nsw i32 %46, 1
  store i32 %47, ptr %3, align 4, !tbaa !15
  br label %16, !llvm.loop !48

48:                                               ; preds = %16
  %49 = load i32, ptr %4, align 4, !tbaa !15
  %50 = load i32, ptr %5, align 4, !tbaa !15
  %51 = ashr i32 %49, %50
  call void @llvm.lifetime.end.p0(i64 4, ptr %5) #8
  call void @llvm.lifetime.end.p0(i64 4, ptr %4) #8
  call void @llvm.lifetime.end.p0(i64 4, ptr %3) #8
  ret i32 %51
}