; Function Attrs: nofree norecurse nosync nounwind memory(argmem: read) uwtable
define i32 @av_get_bits_per_pixel(ptr noundef readonly captures(none) %0) local_unnamed_addr #7 {
  %2 = getelementptr inbounds nuw i8, ptr %0, i64 9
  %3 = load i8, ptr %2, align 1, !tbaa !28
  %4 = zext i8 %3 to i32
  %5 = getelementptr inbounds nuw i8, ptr %0, i64 10
  %6 = load i8, ptr %5, align 2, !tbaa !29
  %7 = zext i8 %6 to i32
  %8 = add nuw nsw i32 %7, %4
  %9 = getelementptr inbounds nuw i8, ptr %0, i64 8
  %10 = load i8, ptr %9, align 8, !tbaa !30
  %.not = icmp eq i8 %10, 0
  br i1 %.not, label %._crit_edge, label %.lr.ph

.lr.ph:                                           ; preds = %1
  %11 = getelementptr i8, ptr %0, i64 40
  %wide.trip.count = zext i8 %10 to i64
  br label %12

12:                                               ; preds = %.lr.ph, %12
  %indvars.iv = phi i64 [ 0, %.lr.ph ], [ %indvars.iv.next, %12 ]
  %.01415 = phi i32 [ 0, %.lr.ph ], [ %19, %12 ]
  %13 = trunc i64 %indvars.iv to i32
  %14 = add i32 %13, -1
  %or.cond = icmp ult i32 %14, 2
  %15 = select i1 %or.cond, i32 0, i32 %8
  %.idx = mul nuw nsw i64 %indvars.iv, 20
  %16 = getelementptr i8, ptr %11, i64 %.idx
  %17 = load i32, ptr %16, align 4, !tbaa !31
  %18 = shl i32 %17, %15
  %19 = add nsw i32 %18, %.01415
  %indvars.iv.next = add nuw nsw i64 %indvars.iv, 1
  %exitcond.not = icmp eq i64 %indvars.iv.next, %wide.trip.count
  br i1 %exitcond.not, label %._crit_edge, label %12, !llvm.loop !33

._crit_edge:                                      ; preds = %12, %1
  %.014.lcssa = phi i32 [ 0, %1 ], [ %19, %12 ]
  %20 = ashr i32 %.014.lcssa, %8
  ret i32 %20
}